target datalayout = "e-m:e-p270:32:32-p271:32:32-p272:64:64-i64:64-i128:128-f80:128-n8:16:32:64-S128"
target triple = "x86_64-pc-linux-gnu"

%struct.__va_list_tag = type { i32, i32, ptr, ptr }

@last_error_msg = internal global ptr null, align 8
@last_error_msg_buffer = internal global [512 x i8] zeroinitializer, align 16

; Function Attrs: nounwind uwtable
define internal i32 @set_error(i32 noundef %0, ptr noundef %1, ...) #0 {
  %3 = alloca i32, align 4
  %4 = alloca ptr, align 8
  %5 = alloca [1 x %struct.__va_list_tag], align 16
  store i32 %0, ptr %3, align 4, !tbaa !9
  store ptr %1, ptr %4, align 8, !tbaa !3
  call void @llvm.lifetime.start.p0(ptr %5) #7
  %6 = getelementptr inbounds [1 x %struct.__va_list_tag], ptr %5, i64 0, i64 0
  call void @llvm.va_start.p0(ptr %6)
  %7 = load ptr, ptr %4, align 8, !tbaa !3
  %8 = getelementptr inbounds [1 x %struct.__va_list_tag], ptr %5, i64 0, i64 0
  %9 = call i32 @vsnprintf(ptr noundef @last_error_msg_buffer, i64 noundef 511, ptr noundef %7, ptr noundef %8) #7
  %10 = icmp slt i32 %9, 511
  br i1 %10, label %11, label %12

11:                                               ; preds = %2
  store ptr @last_error_msg_buffer, ptr @last_error_msg, align 8, !tbaa !3
  br label %12

12:                                               ; preds = %11, %2
  %13 = getelementptr inbounds [1 x %struct.__va_list_tag], ptr %5, i64 0, i64 0
  call void @llvm.va_end.p0(ptr %13)
  %14 = load i32, ptr %3, align 4, !tbaa !9
  call void @llvm.lifetime.end.p0(ptr %5) #7
  ret i32 %14
}