; Function Attrs: nofree nounwind uwtable
define internal noundef range(i32 1, 8) i32 @set_error(i32 noundef returned range(i32 1, 8) %0, ptr noundef readonly captures(none) %1, ...) unnamed_addr #2 {
  %3 = alloca [1 x %struct.__va_list_tag], align 16
  call void @llvm.lifetime.start.p0(ptr nonnull %3) #10
  call void @llvm.va_start.p0(ptr nonnull %3)
  %4 = call i32 @vsnprintf(ptr noundef nonnull @last_error_msg_buffer, i64 noundef 511, ptr noundef %1, ptr noundef nonnull %3) #10
  %5 = icmp slt i32 %4, 511
  br i1 %5, label %6, label %7

6:                                                ; preds = %2
  store ptr @last_error_msg_buffer, ptr @last_error_msg, align 8, !tbaa !3
  br label %7

7:                                                ; preds = %6, %2
  call void @llvm.va_end.p0(ptr nonnull %3)
  call void @llvm.lifetime.end.p0(ptr nonnull %3) #10
  ret i32 %0
}